target datalayout = "e-m:e-p270:32:32-p271:32:32-p272:64:64-i64:64-i128:128-f80:128-n8:16:32:64-S128"
target triple = "x86_64-pc-linux-gnu"

%struct.mbedtls_gcm_context = type { %struct.mbedtls_cipher_context_t, [16 x [2 x i64]], i64, i64, [16 x i8], [16 x i8], [16 x i8], i8, i8 }
%struct.mbedtls_cipher_context_t = type { ptr, i32, i32, ptr, ptr, [16 x i8], i64, [16 x i8], i64, ptr, ptr }

@last4 = internal constant [16 x i16] [i16 0, i16 7200, i16 14400, i16 9312, i16 28800, i16 27808, i16 18624, i16 21728, i16 -7936, i16 -736, i16 -9920, i16 -15008, i16 -28288, i16 -29280, i16 -22080, i16 -18976], align 16

; Function Attrs: alwaysinline nounwind uwtable
define internal i64 @mbedtls_get_unaligned_uint64(ptr noundef %0) #6 {
  %2 = alloca ptr, align 8
  %3 = alloca i64, align 8
  store ptr %0, ptr %2, align 8, !tbaa !30
  call void @llvm.lifetime.start.p0(i64 8, ptr %3) #9
  %4 = load ptr, ptr %2, align 8, !tbaa !30
  call void @llvm.memcpy.p0.p0.i64(ptr align 8 %3, ptr align 1 %4, i64 8, i1 false)
  %5 = load i64, ptr %3, align 8, !tbaa !14
  call void @llvm.lifetime.end.p0(i64 8, ptr %3) #9
  ret i64 %5
}

; Function Attrs: alwaysinline nounwind uwtable
define internal void @mbedtls_put_unaligned_uint64(ptr noundef %0, i64 noundef %1) #6 {
  %3 = alloca ptr, align 8
  %4 = alloca i64, align 8
  store ptr %0, ptr %3, align 8, !tbaa !30
  store i64 %1, ptr %4, align 8, !tbaa !14
  %5 = load ptr, ptr %3, align 8, !tbaa !30
  call void @llvm.memcpy.p0.p0.i64(ptr align 1 %5, ptr align 8 %4, i64 8, i1 false)
  ret void
}

; Function Attrs: alwaysinline nounwind uwtable
define internal void @mbedtls_xor_no_simd(ptr noundef %0, ptr noundef %1, ptr noundef %2, i64 noundef %3) #6 {
  %5 = alloca ptr, align 8
  %6 = alloca ptr, align 8
  %7 = alloca ptr, align 8
  %8 = alloca i64, align 8
  %9 = alloca i64, align 8
  %10 = alloca i64, align 8
  store ptr %0, ptr %5, align 8, !tbaa !10
  store ptr %1, ptr %6, align 8, !tbaa !10
  store ptr %2, ptr %7, align 8, !tbaa !10
  store i64 %3, ptr %8, align 8, !tbaa !14
  call void @llvm.lifetime.start.p0(i64 8, ptr %9) #9
  store i64 0, ptr %9, align 8, !tbaa !14
  br label %11

11:                                               ; preds = %30, %4
  %12 = load i64, ptr %9, align 8, !tbaa !14
  %13 = add i64 %12, 8
  %14 = load i64, ptr %8, align 8, !tbaa !14
  %15 = icmp ule i64 %13, %14
  br i1 %15, label %16, label %33

16:                                               ; preds = %11
  call void @llvm.lifetime.start.p0(i64 8, ptr %10) #9
  %17 = load ptr, ptr %6, align 8, !tbaa !10
  %18 = load i64, ptr %9, align 8, !tbaa !14
  %19 = getelementptr inbounds nuw i8, ptr %17, i64 %18
  %20 = call i64 @mbedtls_get_unaligned_uint64(ptr noundef %19)
  %21 = load ptr, ptr %7, align 8, !tbaa !10
  %22 = load i64, ptr %9, align 8, !tbaa !14
  %23 = getelementptr inbounds nuw i8, ptr %21, i64 %22
  %24 = call i64 @mbedtls_get_unaligned_uint64(ptr noundef %23)
  %25 = xor i64 %20, %24
  store i64 %25, ptr %10, align 8, !tbaa !14
  %26 = load ptr, ptr %5, align 8, !tbaa !10
  %27 = load i64, ptr %9, align 8, !tbaa !14
  %28 = getelementptr inbounds nuw i8, ptr %26, i64 %27
  %29 = load i64, ptr %10, align 8, !tbaa !14
  call void @mbedtls_put_unaligned_uint64(ptr noundef %28, i64 noundef %29)
  call void @llvm.lifetime.end.p0(i64 8, ptr %10) #9
  br label %30

30:                                               ; preds = %16
  %31 = load i64, ptr %9, align 8, !tbaa !14
  %32 = add i64 %31, 8
  store i64 %32, ptr %9, align 8, !tbaa !14
  br label %11, !llvm.loop !39

33:                                               ; preds = %11
  br label %34

34:                                               ; preds = %54, %33
  %35 = load i64, ptr %9, align 8, !tbaa !14
  %36 = load i64, ptr %8, align 8, !tbaa !14
  %37 = icmp ult i64 %35, %36
  br i1 %37, label %38, label %57

38:                                               ; preds = %34
  %39 = load ptr, ptr %6, align 8, !tbaa !10
  %40 = load i64, ptr %9, align 8, !tbaa !14
  %41 = getelementptr inbounds nuw i8, ptr %39, i64 %40
  %42 = load i8, ptr %41, align 1, !tbaa !28
  %43 = zext i8 %42 to i32
  %44 = load ptr, ptr %7, align 8, !tbaa !10
  %45 = load i64, ptr %9, align 8, !tbaa !14
  %46 = getelementptr inbounds nuw i8, ptr %44, i64 %45
  %47 = load i8, ptr %46, align 1, !tbaa !28
  %48 = zext i8 %47 to i32
  %49 = xor i32 %43, %48
  %50 = trunc i32 %49 to i8
  %51 = load ptr, ptr %5, align 8, !tbaa !10
  %52 = load i64, ptr %9, align 8, !tbaa !14
  %53 = getelementptr inbounds nuw i8, ptr %51, i64 %52
  store i8 %50, ptr %53, align 1, !tbaa !28
  br label %54

54:                                               ; preds = %38
  %55 = load i64, ptr %9, align 8, !tbaa !14
  %56 = add i64 %55, 1
  store i64 %56, ptr %9, align 8, !tbaa !14
  br label %34, !llvm.loop !40

57:                                               ; preds = %34
  call void @llvm.lifetime.end.p0(i64 8, ptr %9) #9
  ret void
}

; Function Attrs: nounwind uwtable
define internal void @gcm_mult_smalltable(ptr noundef %0, ptr noundef %1, ptr noundef %2) #0 {
  %4 = alloca ptr, align 8
  %5 = alloca ptr, align 8
  %6 = alloca ptr, align 8
  %7 = alloca i32, align 4
  %8 = alloca i8, align 1
  %9 = alloca i8, align 1
  %10 = alloca i8, align 1
  %11 = alloca [2 x i64], align 16
  %12 = alloca ptr, align 8
  %13 = alloca ptr, align 8
  store ptr %0, ptr %4, align 8, !tbaa !10
  store ptr %1, ptr %5, align 8, !tbaa !10
  store ptr %2, ptr %6, align 8, !tbaa !34
  call void @llvm.lifetime.start.p0(i64 4, ptr %7) #9
  store i32 0, ptr %7, align 4, !tbaa !8
  call void @llvm.lifetime.start.p0(i64 1, ptr %8) #9
  call void @llvm.lifetime.start.p0(i64 1, ptr %9) #9
  call void @llvm.lifetime.start.p0(i64 1, ptr %10) #9
  call void @llvm.lifetime.start.p0(i64 16, ptr %11) #9
  call void @llvm.lifetime.start.p0(i64 8, ptr %12) #9
  store ptr null, ptr %12, align 8, !tbaa !34
  call void @llvm.lifetime.start.p0(i64 8, ptr %13) #9
  %14 = getelementptr inbounds [2 x i64], ptr %11, i64 0, i64 0
  store ptr %14, ptr %13, align 8, !tbaa !10
  %15 = load ptr, ptr %5, align 8, !tbaa !10
  %16 = getelementptr inbounds i8, ptr %15, i64 15
  %17 = load i8, ptr %16, align 1, !tbaa !28
  %18 = zext i8 %17 to i32
  %19 = and i32 %18, 15
  %20 = trunc i32 %19 to i8
  store i8 %20, ptr %8, align 1, !tbaa !28
  %21 = load ptr, ptr %5, align 8, !tbaa !10
  %22 = getelementptr inbounds i8, ptr %21, i64 15
  %23 = load i8, ptr %22, align 1, !tbaa !28
  %24 = zext i8 %23 to i32
  %25 = ashr i32 %24, 4
  %26 = and i32 %25, 15
  %27 = trunc i32 %26 to i8
  store i8 %27, ptr %9, align 1, !tbaa !28
  %28 = load ptr, ptr %6, align 8, !tbaa !34
  %29 = load i8, ptr %8, align 1, !tbaa !28
  %30 = zext i8 %29 to i64
  %31 = getelementptr inbounds nuw [2 x i64], ptr %28, i64 %30
  %32 = getelementptr inbounds [2 x i64], ptr %31, i64 0, i64 0
  store ptr %32, ptr %12, align 8, !tbaa !34
  %33 = load ptr, ptr %12, align 8, !tbaa !34
  %34 = getelementptr inbounds i64, ptr %33, i64 1
  %35 = load i64, ptr %34, align 8, !tbaa !14
  %36 = trunc i64 %35 to i8
  %37 = zext i8 %36 to i32
  %38 = and i32 %37, 15
  %39 = trunc i32 %38 to i8
  store i8 %39, ptr %10, align 1, !tbaa !28
  %40 = load ptr, ptr %12, align 8, !tbaa !34
  %41 = getelementptr inbounds i64, ptr %40, i64 0
  %42 = load i64, ptr %41, align 8, !tbaa !14
  %43 = shl i64 %42, 60
  %44 = load ptr, ptr %12, align 8, !tbaa !34
  %45 = getelementptr inbounds i64, ptr %44, i64 1
  %46 = load i64, ptr %45, align 8, !tbaa !14
  %47 = lshr i64 %46, 4
  %48 = or i64 %43, %47
  %49 = getelementptr inbounds [2 x i64], ptr %11, i64 0, i64 1
  store i64 %48, ptr %49, align 8, !tbaa !14
  %50 = load ptr, ptr %12, align 8, !tbaa !34
  %51 = getelementptr inbounds i64, ptr %50, i64 0
  %52 = load i64, ptr %51, align 8, !tbaa !14
  %53 = lshr i64 %52, 4
  %54 = getelementptr inbounds [2 x i64], ptr %11, i64 0, i64 0
  store i64 %53, ptr %54, align 16, !tbaa !14
  %55 = load i8, ptr %10, align 1, !tbaa !28
  %56 = zext i8 %55 to i64
  %57 = getelementptr inbounds nuw [16 x i16], ptr @last4, i64 0, i64 %56
  %58 = load i16, ptr %57, align 2, !tbaa !41
  %59 = zext i16 %58 to i64
  %60 = shl i64 %59, 48
  %61 = getelementptr inbounds [2 x i64], ptr %11, i64 0, i64 0
  %62 = load i64, ptr %61, align 16, !tbaa !14
  %63 = xor i64 %62, %60
  store i64 %63, ptr %61, align 16, !tbaa !14
  %64 = load ptr, ptr %13, align 8, !tbaa !10
  %65 = load ptr, ptr %13, align 8, !tbaa !10
  %66 = load ptr, ptr %6, align 8, !tbaa !34
  %67 = load i8, ptr %9, align 1, !tbaa !28
  %68 = zext i8 %67 to i64
  %69 = getelementptr inbounds nuw [2 x i64], ptr %66, i64 %68
  %70 = getelementptr inbounds [2 x i64], ptr %69, i64 0, i64 0
  call void @mbedtls_xor_no_simd(ptr noundef %64, ptr noundef %65, ptr noundef %70, i64 noundef 16)
  store i32 14, ptr %7, align 4, !tbaa !8
  br label %71

71:                                               ; preds = %160, %3
  %72 = load i32, ptr %7, align 4, !tbaa !8
  %73 = icmp sge i32 %72, 0
  br i1 %73, label %74, label %163

74:                                               ; preds = %71
  %75 = load ptr, ptr %5, align 8, !tbaa !10
  %76 = load i32, ptr %7, align 4, !tbaa !8
  %77 = sext i32 %76 to i64
  %78 = getelementptr inbounds i8, ptr %75, i64 %77
  %79 = load i8, ptr %78, align 1, !tbaa !28
  %80 = zext i8 %79 to i32
  %81 = and i32 %80, 15
  %82 = trunc i32 %81 to i8
  store i8 %82, ptr %8, align 1, !tbaa !28
  %83 = load ptr, ptr %5, align 8, !tbaa !10
  %84 = load i32, ptr %7, align 4, !tbaa !8
  %85 = sext i32 %84 to i64
  %86 = getelementptr inbounds i8, ptr %83, i64 %85
  %87 = load i8, ptr %86, align 1, !tbaa !28
  %88 = zext i8 %87 to i32
  %89 = ashr i32 %88, 4
  %90 = and i32 %89, 15
  %91 = trunc i32 %90 to i8
  store i8 %91, ptr %9, align 1, !tbaa !28
  %92 = getelementptr inbounds [2 x i64], ptr %11, i64 0, i64 1
  %93 = load i64, ptr %92, align 8, !tbaa !14
  %94 = trunc i64 %93 to i8
  %95 = zext i8 %94 to i32
  %96 = and i32 %95, 15
  %97 = trunc i32 %96 to i8
  store i8 %97, ptr %10, align 1, !tbaa !28
  %98 = getelementptr inbounds [2 x i64], ptr %11, i64 0, i64 0
  %99 = load i64, ptr %98, align 16, !tbaa !14
  %100 = shl i64 %99, 60
  %101 = getelementptr inbounds [2 x i64], ptr %11, i64 0, i64 1
  %102 = load i64, ptr %101, align 8, !tbaa !14
  %103 = lshr i64 %102, 4
  %104 = or i64 %100, %103
  %105 = getelementptr inbounds [2 x i64], ptr %11, i64 0, i64 1
  store i64 %104, ptr %105, align 8, !tbaa !14
  %106 = getelementptr inbounds [2 x i64], ptr %11, i64 0, i64 0
  %107 = load i64, ptr %106, align 16, !tbaa !14
  %108 = lshr i64 %107, 4
  %109 = getelementptr inbounds [2 x i64], ptr %11, i64 0, i64 0
  store i64 %108, ptr %109, align 16, !tbaa !14
  %110 = load i8, ptr %10, align 1, !tbaa !28
  %111 = zext i8 %110 to i64
  %112 = getelementptr inbounds nuw [16 x i16], ptr @last4, i64 0, i64 %111
  %113 = load i16, ptr %112, align 2, !tbaa !41
  %114 = zext i16 %113 to i64
  %115 = shl i64 %114, 48
  %116 = getelementptr inbounds [2 x i64], ptr %11, i64 0, i64 0
  %117 = load i64, ptr %116, align 16, !tbaa !14
  %118 = xor i64 %117, %115
  store i64 %118, ptr %116, align 16, !tbaa !14
  %119 = load ptr, ptr %13, align 8, !tbaa !10
  %120 = load ptr, ptr %13, align 8, !tbaa !10
  %121 = load ptr, ptr %6, align 8, !tbaa !34
  %122 = load i8, ptr %8, align 1, !tbaa !28
  %123 = zext i8 %122 to i64
  %124 = getelementptr inbounds nuw [2 x i64], ptr %121, i64 %123
  %125 = getelementptr inbounds [2 x i64], ptr %124, i64 0, i64 0
  call void @mbedtls_xor_no_simd(ptr noundef %119, ptr noundef %120, ptr noundef %125, i64 noundef 16)
  %126 = getelementptr inbounds [2 x i64], ptr %11, i64 0, i64 1
  %127 = load i64, ptr %126, align 8, !tbaa !14
  %128 = trunc i64 %127 to i8
  %129 = zext i8 %128 to i32
  %130 = and i32 %129, 15
  %131 = trunc i32 %130 to i8
  store i8 %131, ptr %10, align 1, !tbaa !28
  %132 = getelementptr inbounds [2 x i64], ptr %11, i64 0, i64 0
  %133 = load i64, ptr %132, align 16, !tbaa !14
  %134 = shl i64 %133, 60
  %135 = getelementptr inbounds [2 x i64], ptr %11, i64 0, i64 1
  %136 = load i64, ptr %135, align 8, !tbaa !14
  %137 = lshr i64 %136, 4
  %138 = or i64 %134, %137
  %139 = getelementptr inbounds [2 x i64], ptr %11, i64 0, i64 1
  store i64 %138, ptr %139, align 8, !tbaa !14
  %140 = getelementptr inbounds [2 x i64], ptr %11, i64 0, i64 0
  %141 = load i64, ptr %140, align 16, !tbaa !14
  %142 = lshr i64 %141, 4
  %143 = getelementptr inbounds [2 x i64], ptr %11, i64 0, i64 0
  store i64 %142, ptr %143, align 16, !tbaa !14
  %144 = load i8, ptr %10, align 1, !tbaa !28
  %145 = zext i8 %144 to i64
  %146 = getelementptr inbounds nuw [16 x i16], ptr @last4, i64 0, i64 %145
  %147 = load i16, ptr %146, align 2, !tbaa !41
  %148 = zext i16 %147 to i64
  %149 = shl i64 %148, 48
  %150 = getelementptr inbounds [2 x i64], ptr %11, i64 0, i64 0
  %151 = load i64, ptr %150, align 16, !tbaa !14
  %152 = xor i64 %151, %149
  store i64 %152, ptr %150, align 16, !tbaa !14
  %153 = load ptr, ptr %13, align 8, !tbaa !10
  %154 = load ptr, ptr %13, align 8, !tbaa !10
  %155 = load ptr, ptr %6, align 8, !tbaa !34
  %156 = load i8, ptr %9, align 1, !tbaa !28
  %157 = zext i8 %156 to i64
  %158 = getelementptr inbounds nuw [2 x i64], ptr %155, i64 %157
  %159 = getelementptr inbounds [2 x i64], ptr %158, i64 0, i64 0
  call void @mbedtls_xor_no_simd(ptr noundef %153, ptr noundef %154, ptr noundef %159, i64 noundef 16)
  br label %160

160:                                              ; preds = %74
  %161 = load i32, ptr %7, align 4, !tbaa !8
  %162 = add nsw i32 %161, -1
  store i32 %162, ptr %7, align 4, !tbaa !8
  br label %71, !llvm.loop !43

163:                                              ; preds = %71
  %164 = load ptr, ptr %4, align 8, !tbaa !10
  %165 = getelementptr inbounds i8, ptr %164, i64 0
  %166 = getelementptr inbounds [2 x i64], ptr %11, i64 0, i64 0
  %167 = load i64, ptr %166, align 16, !tbaa !14
  %168 = call i64 @llvm.bswap.i64(i64 %167)
  call void @mbedtls_put_unaligned_uint64(ptr noundef %165, i64 noundef %168)
  %169 = load ptr, ptr %4, align 8, !tbaa !10
  %170 = getelementptr inbounds i8, ptr %169, i64 8
  %171 = getelementptr inbounds [2 x i64], ptr %11, i64 0, i64 1
  %172 = load i64, ptr %171, align 8, !tbaa !14
  %173 = call i64 @llvm.bswap.i64(i64 %172)
  call void @mbedtls_put_unaligned_uint64(ptr noundef %170, i64 noundef %173)
  call void @llvm.lifetime.end.p0(i64 8, ptr %13) #9
  call void @llvm.lifetime.end.p0(i64 8, ptr %12) #9
  call void @llvm.lifetime.end.p0(i64 16, ptr %11) #9
  call void @llvm.lifetime.end.p0(i64 1, ptr %10) #9
  call void @llvm.lifetime.end.p0(i64 1, ptr %9) #9
  call void @llvm.lifetime.end.p0(i64 1, ptr %8) #9
  call void @llvm.lifetime.end.p0(i64 4, ptr %7) #9
  ret void
}

; Function Attrs: nounwind uwtable
define internal void @gcm_mult(ptr noundef %0, ptr noundef %1, ptr noundef %2) #0 {
  %4 = alloca ptr, align 8
  %5 = alloca ptr, align 8
  %6 = alloca ptr, align 8
  store ptr %0, ptr %4, align 8, !tbaa !3
  store ptr %1, ptr %5, align 8, !tbaa !10
  store ptr %2, ptr %6, align 8, !tbaa !10
  %7 = load ptr, ptr %4, align 8, !tbaa !3
  %8 = getelementptr inbounds nuw %struct.mbedtls_gcm_context, ptr %7, i32 0, i32 8
  %9 = load i8, ptr %8, align 1, !tbaa !16
  %10 = zext i8 %9 to i32
  switch i32 %10, label %24 [
    i32 2, label %11
    i32 0, label %18
  ]

11:                                               ; preds = %3
  %12 = load ptr, ptr %6, align 8, !tbaa !10
  %13 = load ptr, ptr %5, align 8, !tbaa !10
  %14 = load ptr, ptr %4, align 8, !tbaa !3
  %15 = getelementptr inbounds nuw %struct.mbedtls_gcm_context, ptr %14, i32 0, i32 1
  %16 = getelementptr inbounds [16 x [2 x i64]], ptr %15, i64 0, i64 8
  %17 = getelementptr inbounds [2 x i64], ptr %16, i64 0, i64 0
  call void @mbedtls_aesni_gcm_mult(ptr noundef %12, ptr noundef %13, ptr noundef %17)
  br label %24

18:                                               ; preds = %3
  %19 = load ptr, ptr %6, align 8, !tbaa !10
  %20 = load ptr, ptr %5, align 8, !tbaa !10
  %21 = load ptr, ptr %4, align 8, !tbaa !3
  %22 = getelementptr inbounds nuw %struct.mbedtls_gcm_context, ptr %21, i32 0, i32 1
  %23 = getelementptr inbounds [16 x [2 x i64]], ptr %22, i64 0, i64 0
  call void @gcm_mult_smalltable(ptr noundef %19, ptr noundef %20, ptr noundef %23)
  br label %24

24:                                               ; preds = %3, %18, %11
  ret void
}