; Function Attrs: nounwind uwtable
define internal fastcc void @gcm_mult(ptr noundef %0, ptr noundef %1, ptr noundef %2) unnamed_addr #2 {
  %4 = getelementptr inbounds nuw i8, ptr %0, i64 417
  %5 = load i8, ptr %4, align 1, !tbaa !7
  switch i8 %5, label %66 [
    i8 2, label %6
    i8 0, label %mbedtls_xor_no_simd.exit35.preheader.i.critedge
  ]

6:                                                ; preds = %3
  %7 = getelementptr inbounds nuw i8, ptr %0, i64 224
  tail call void @mbedtls_aesni_gcm_mult(ptr noundef %2, ptr noundef %1, ptr noundef nonnull %7) #11
  br label %66

mbedtls_xor_no_simd.exit35.preheader.i.critedge:  ; preds = %3
  %8 = getelementptr inbounds nuw i8, ptr %0, i64 96
  %9 = getelementptr inbounds nuw i8, ptr %1, i64 15
  %10 = load i8, ptr %9, align 1, !tbaa !14
  %11 = and i8 %10, 15
  %12 = lshr i8 %10, 4
  %13 = zext nneg i8 %11 to i64
  %14 = getelementptr inbounds nuw [2 x i64], ptr %8, i64 %13
  %15 = getelementptr inbounds nuw i8, ptr %14, i64 8
  %16 = load i64, ptr %15, align 8, !tbaa !3
  %17 = and i64 %16, 15
  %18 = load i64, ptr %14, align 8, !tbaa !3
  %19 = tail call i64 @llvm.fshl.i64(i64 %18, i64 %16, i64 60)
  %20 = lshr i64 %18, 4
  %21 = getelementptr inbounds nuw [16 x i16], ptr @last4, i64 0, i64 %17
  %22 = load i16, ptr %21, align 2, !tbaa !24
  %23 = zext i16 %22 to i64
  %24 = shl nuw i64 %23, 48
  %25 = xor i64 %24, %20
  %26 = zext nneg i8 %12 to i64
  %27 = getelementptr inbounds nuw [2 x i64], ptr %8, i64 %26
  %.0.copyload.i.i = load i64, ptr %27, align 1
  %28 = xor i64 %25, %.0.copyload.i.i
  %29 = getelementptr inbounds nuw i8, ptr %27, i64 8
  %.0.copyload.i.i.c = load i64, ptr %29, align 1
  %30 = xor i64 %.0.copyload.i.i.c, %19
  br label %mbedtls_xor_no_simd.exit35.preheader.i

mbedtls_xor_no_simd.exit35.preheader.i:           ; preds = %mbedtls_xor_no_simd.exit35.preheader.i.critedge, %mbedtls_xor_no_simd.exit35.preheader.i
  %31 = phi i64 [ %60, %mbedtls_xor_no_simd.exit35.preheader.i ], [ %28, %mbedtls_xor_no_simd.exit35.preheader.i.critedge ]
  %32 = phi i64 [ %62, %mbedtls_xor_no_simd.exit35.preheader.i ], [ %30, %mbedtls_xor_no_simd.exit35.preheader.i.critedge ]
  %indvars.iv.i = phi i64 [ %indvars.iv.next.i, %mbedtls_xor_no_simd.exit35.preheader.i ], [ 14, %mbedtls_xor_no_simd.exit35.preheader.i.critedge ]
  %33 = getelementptr inbounds nuw i8, ptr %1, i64 %indvars.iv.i
  %34 = load i8, ptr %33, align 1, !tbaa !14
  %35 = and i8 %34, 15
  %36 = and i64 %32, 15
  %37 = tail call i64 @llvm.fshl.i64(i64 %31, i64 %32, i64 60)
  %38 = lshr i64 %31, 4
  %39 = getelementptr inbounds nuw [16 x i16], ptr @last4, i64 0, i64 %36
  %40 = load i16, ptr %39, align 2, !tbaa !24
  %41 = zext i16 %40 to i64
  %42 = shl nuw i64 %41, 48
  %43 = xor i64 %42, %38
  %44 = zext nneg i8 %35 to i64
  %45 = getelementptr inbounds nuw [2 x i64], ptr %8, i64 %44
  %.0.copyload.i37.i = load i64, ptr %45, align 1
  %46 = xor i64 %43, %.0.copyload.i37.i
  %47 = getelementptr inbounds nuw i8, ptr %45, i64 8
  %.0.copyload.i37.i.c = load i64, ptr %47, align 1
  %48 = xor i64 %.0.copyload.i37.i.c, %37
  %49 = lshr i8 %34, 4
  %50 = and i64 %48, 15
  %51 = tail call i64 @llvm.fshl.i64(i64 %46, i64 %48, i64 60)
  %52 = lshr i64 %46, 4
  %53 = getelementptr inbounds nuw [16 x i16], ptr @last4, i64 0, i64 %50
  %54 = load i16, ptr %53, align 2, !tbaa !24
  %55 = zext i16 %54 to i64
  %56 = shl nuw i64 %55, 48
  %57 = xor i64 %56, %52
  %58 = zext nneg i8 %49 to i64
  %59 = getelementptr inbounds nuw [2 x i64], ptr %8, i64 %58
  %.0.copyload.i39.i = load i64, ptr %59, align 1
  %60 = xor i64 %57, %.0.copyload.i39.i
  %61 = getelementptr inbounds nuw i8, ptr %59, i64 8
  %.0.copyload.i39.i.c = load i64, ptr %61, align 1
  %62 = xor i64 %.0.copyload.i39.i.c, %51
  %indvars.iv.next.i = add nsw i64 %indvars.iv.i, -1
  %.not.i = icmp eq i64 %indvars.iv.i, 0
  br i1 %.not.i, label %gcm_mult_smalltable.exit, label %mbedtls_xor_no_simd.exit35.preheader.i, !llvm.loop !26

gcm_mult_smalltable.exit:                         ; preds = %mbedtls_xor_no_simd.exit35.preheader.i
  %63 = tail call i64 @llvm.bswap.i64(i64 %60)
  store i64 %63, ptr %2, align 1
  %64 = getelementptr inbounds nuw i8, ptr %2, i64 8
  %65 = tail call i64 @llvm.bswap.i64(i64 %62)
  store i64 %65, ptr %64, align 1
  br label %66

66:                                               ; preds = %gcm_mult_smalltable.exit, %6, %3
  ret void
}